target datalayout = "e-m:e-p270:32:32-p271:32:32-p272:64:64-i64:64-i128:128-f80:128-n8:16:32:64-S128"
target triple = "x86_64-pc-linux-gnu"

%struct.LZ4F_CustomMem = type { ptr, ptr, ptr, ptr }
%struct.LZ4F_CDict_s = type { %struct.LZ4F_CustomMem, ptr, ptr, ptr }

; Function Attrs: nounwind uwtable
define internal ptr @LZ4F_malloc(i64 noundef %0, ptr noundef byval(%struct.LZ4F_CustomMem) align 8 %1) #0 {
  %3 = alloca ptr, align 8
  %4 = alloca i64, align 8
  store i64 %0, ptr %4, align 8, !tbaa !3
  %5 = getelementptr inbounds nuw %struct.LZ4F_CustomMem, ptr %1, i32 0, i32 0
  %6 = load ptr, ptr %5, align 8, !tbaa !56
  %7 = icmp ne ptr %6, null
  br i1 %7, label %8, label %15

8:                                                ; preds = %2
  %9 = getelementptr inbounds nuw %struct.LZ4F_CustomMem, ptr %1, i32 0, i32 0
  %10 = load ptr, ptr %9, align 8, !tbaa !56
  %11 = getelementptr inbounds nuw %struct.LZ4F_CustomMem, ptr %1, i32 0, i32 3
  %12 = load ptr, ptr %11, align 8, !tbaa !48
  %13 = load i64, ptr %4, align 8, !tbaa !3
  %14 = call ptr %10(ptr noundef %12, i64 noundef %13)
  store ptr %14, ptr %3, align 8
  br label %18

15:                                               ; preds = %2
  %16 = load i64, ptr %4, align 8, !tbaa !3
  %17 = call noalias ptr @malloc(i64 noundef %16) #9
  store ptr %17, ptr %3, align 8
  br label %18

18:                                               ; preds = %15, %8
  %19 = load ptr, ptr %3, align 8
  ret ptr %19
}

; Function Attrs: nounwind uwtable
define ptr @LZ4F_createCDict_advanced(ptr noundef byval(%struct.LZ4F_CustomMem) align 8 %0, ptr noundef %1, i64 noundef %2) #0 {
  %4 = alloca ptr, align 8
  %5 = alloca ptr, align 8
  %6 = alloca i64, align 8
  %7 = alloca ptr, align 8
  %8 = alloca ptr, align 8
  %9 = alloca i32, align 4
  store ptr %1, ptr %5, align 8, !tbaa !12
  store i64 %2, ptr %6, align 8, !tbaa !3
  call void @llvm.lifetime.start.p0(i64 8, ptr %7) #8
  %10 = load ptr, ptr %5, align 8, !tbaa !12
  store ptr %10, ptr %7, align 8, !tbaa !7
  call void @llvm.lifetime.start.p0(i64 8, ptr %8) #8
  %11 = call ptr @LZ4F_malloc(i64 noundef 56, ptr noundef byval(%struct.LZ4F_CustomMem) align 8 %0)
  store ptr %11, ptr %8, align 8, !tbaa !25
  %12 = load ptr, ptr %8, align 8, !tbaa !25
  %13 = icmp ne ptr %12, null
  br i1 %13, label %15, label %14

14:                                               ; preds = %3
  store ptr null, ptr %4, align 8
  store i32 1, ptr %9, align 4
  br label %88

15:                                               ; preds = %3
  %16 = load ptr, ptr %8, align 8, !tbaa !25
  %17 = getelementptr inbounds nuw %struct.LZ4F_CDict_s, ptr %16, i32 0, i32 0
  call void @llvm.memcpy.p0.p0.i64(ptr align 8 %17, ptr align 8 %0, i64 32, i1 false), !tbaa.struct !49
  %18 = load i64, ptr %6, align 8, !tbaa !3
  %19 = icmp ugt i64 %18, 65536
  br i1 %19, label %20, label %25

20:                                               ; preds = %15
  %21 = load i64, ptr %6, align 8, !tbaa !3
  %22 = sub i64 %21, 65536
  %23 = load ptr, ptr %7, align 8, !tbaa !7
  %24 = getelementptr inbounds nuw i8, ptr %23, i64 %22
  store ptr %24, ptr %7, align 8, !tbaa !7
  store i64 65536, ptr %6, align 8, !tbaa !3
  br label %25

25:                                               ; preds = %20, %15
  %26 = load i64, ptr %6, align 8, !tbaa !3
  %27 = call ptr @LZ4F_malloc(i64 noundef %26, ptr noundef byval(%struct.LZ4F_CustomMem) align 8 %0)
  %28 = load ptr, ptr %8, align 8, !tbaa !25
  %29 = getelementptr inbounds nuw %struct.LZ4F_CDict_s, ptr %28, i32 0, i32 1
  store ptr %27, ptr %29, align 8, !tbaa !50
  %30 = call ptr @LZ4F_malloc(i64 noundef 16416, ptr noundef byval(%struct.LZ4F_CustomMem) align 8 %0)
  %31 = load ptr, ptr %8, align 8, !tbaa !25
  %32 = getelementptr inbounds nuw %struct.LZ4F_CDict_s, ptr %31, i32 0, i32 2
  store ptr %30, ptr %32, align 8, !tbaa !54
  %33 = call ptr @LZ4F_malloc(i64 noundef 262200, ptr noundef byval(%struct.LZ4F_CustomMem) align 8 %0)
  %34 = load ptr, ptr %8, align 8, !tbaa !25
  %35 = getelementptr inbounds nuw %struct.LZ4F_CDict_s, ptr %34, i32 0, i32 3
  store ptr %33, ptr %35, align 8, !tbaa !55
  %36 = load ptr, ptr %8, align 8, !tbaa !25
  %37 = getelementptr inbounds nuw %struct.LZ4F_CDict_s, ptr %36, i32 0, i32 1
  %38 = load ptr, ptr %37, align 8, !tbaa !50
  %39 = icmp ne ptr %38, null
  br i1 %39, label %40, label %50

40:                                               ; preds = %25
  %41 = load ptr, ptr %8, align 8, !tbaa !25
  %42 = getelementptr inbounds nuw %struct.LZ4F_CDict_s, ptr %41, i32 0, i32 2
  %43 = load ptr, ptr %42, align 8, !tbaa !54
  %44 = icmp ne ptr %43, null
  br i1 %44, label %45, label %50

45:                                               ; preds = %40
  %46 = load ptr, ptr %8, align 8, !tbaa !25
  %47 = getelementptr inbounds nuw %struct.LZ4F_CDict_s, ptr %46, i32 0, i32 3
  %48 = load ptr, ptr %47, align 8, !tbaa !55
  %49 = icmp ne ptr %48, null
  br i1 %49, label %52, label %50

50:                                               ; preds = %45, %40, %25
  %51 = load ptr, ptr %8, align 8, !tbaa !25
  call void @LZ4F_freeCDict(ptr noundef %51)
  store ptr null, ptr %4, align 8
  store i32 1, ptr %9, align 4
  br label %88

52:                                               ; preds = %45
  %53 = load ptr, ptr %8, align 8, !tbaa !25
  %54 = getelementptr inbounds nuw %struct.LZ4F_CDict_s, ptr %53, i32 0, i32 1
  %55 = load ptr, ptr %54, align 8, !tbaa !50
  %56 = load ptr, ptr %7, align 8, !tbaa !7
  %57 = load i64, ptr %6, align 8, !tbaa !3
  call void @llvm.memcpy.p0.p0.i64(ptr align 1 %55, ptr align 1 %56, i64 %57, i1 false)
  %58 = load ptr, ptr %8, align 8, !tbaa !25
  %59 = getelementptr inbounds nuw %struct.LZ4F_CDict_s, ptr %58, i32 0, i32 2
  %60 = load ptr, ptr %59, align 8, !tbaa !54
  %61 = call ptr @LZ4_initStream(ptr noundef %60, i64 noundef 16416)
  %62 = load ptr, ptr %8, align 8, !tbaa !25
  %63 = getelementptr inbounds nuw %struct.LZ4F_CDict_s, ptr %62, i32 0, i32 2
  %64 = load ptr, ptr %63, align 8, !tbaa !54
  %65 = load ptr, ptr %8, align 8, !tbaa !25
  %66 = getelementptr inbounds nuw %struct.LZ4F_CDict_s, ptr %65, i32 0, i32 1
  %67 = load ptr, ptr %66, align 8, !tbaa !50
  %68 = load i64, ptr %6, align 8, !tbaa !3
  %69 = trunc i64 %68 to i32
  %70 = call i32 @LZ4_loadDictSlow(ptr noundef %64, ptr noundef %67, i32 noundef %69)
  %71 = load ptr, ptr %8, align 8, !tbaa !25
  %72 = getelementptr inbounds nuw %struct.LZ4F_CDict_s, ptr %71, i32 0, i32 3
  %73 = load ptr, ptr %72, align 8, !tbaa !55
  %74 = call ptr @LZ4_initStreamHC(ptr noundef %73, i64 noundef 262200)
  %75 = load ptr, ptr %8, align 8, !tbaa !25
  %76 = getelementptr inbounds nuw %struct.LZ4F_CDict_s, ptr %75, i32 0, i32 3
  %77 = load ptr, ptr %76, align 8, !tbaa !55
  call void @LZ4_setCompressionLevel(ptr noundef %77, i32 noundef 9)
  %78 = load ptr, ptr %8, align 8, !tbaa !25
  %79 = getelementptr inbounds nuw %struct.LZ4F_CDict_s, ptr %78, i32 0, i32 3
  %80 = load ptr, ptr %79, align 8, !tbaa !55
  %81 = load ptr, ptr %8, align 8, !tbaa !25
  %82 = getelementptr inbounds nuw %struct.LZ4F_CDict_s, ptr %81, i32 0, i32 1
  %83 = load ptr, ptr %82, align 8, !tbaa !50
  %84 = load i64, ptr %6, align 8, !tbaa !3
  %85 = trunc i64 %84 to i32
  %86 = call i32 @LZ4_loadDictHC(ptr noundef %80, ptr noundef %83, i32 noundef %85)
  %87 = load ptr, ptr %8, align 8, !tbaa !25
  store ptr %87, ptr %4, align 8
  store i32 1, ptr %9, align 4
  br label %88

88:                                               ; preds = %52, %50, %14
  call void @llvm.lifetime.end.p0(i64 8, ptr %8) #8
  call void @llvm.lifetime.end.p0(i64 8, ptr %7) #8
  %89 = load ptr, ptr %4, align 8
  ret ptr %89
}