; Function Attrs: nounwind uwtable
define ptr @LZ4F_createCDict_advanced(ptr noundef readonly byval(%struct.LZ4F_CustomMem) align 8 captures(none) %0, ptr noundef readonly captures(none) %1, i64 noundef %2) local_unnamed_addr #5 {
  %.val = load ptr, ptr %0, align 8, !tbaa !41
  %4 = getelementptr inbounds nuw i8, ptr %0, i64 24
  %.val35 = load ptr, ptr %4, align 8
  %.not.i = icmp eq ptr %.val, null
  br i1 %.not.i, label %LZ4F_malloc.exit, label %LZ4F_malloc.exit.thread

LZ4F_malloc.exit:                                 ; preds = %3
  %5 = tail call noalias dereferenceable_or_null(56) ptr @malloc(i64 noundef 56) #14
  %.not = icmp eq ptr %5, null
  br i1 %.not, label %45, label %16

LZ4F_malloc.exit.thread:                          ; preds = %3
  %6 = tail call ptr %.val(ptr noundef %.val35, i64 noundef 56) #13
  %.not52 = icmp eq ptr %6, null
  br i1 %.not52, label %45, label %7

7:                                                ; preds = %LZ4F_malloc.exit.thread
  call void @llvm.memcpy.p0.p0.i64(ptr noundef nonnull align 8 dereferenceable(32) %6, ptr noundef nonnull align 8 dereferenceable(32) %0, i64 32, i1 false), !tbaa.struct !42
  %8 = icmp ugt i64 %2, 65536
  %9 = getelementptr i8, ptr %1, i64 %2
  %10 = getelementptr i8, ptr %9, i64 -65536
  %.02855 = tail call i64 @llvm.umin.i64(i64 %2, i64 65536)
  %.02756 = select i1 %8, ptr %10, ptr %1
  %11 = tail call ptr %.val(ptr noundef %.val35, i64 noundef %.02855) #13
  %12 = getelementptr inbounds nuw i8, ptr %6, i64 32
  store ptr %11, ptr %12, align 8, !tbaa !44
  %13 = tail call ptr %.val(ptr noundef %.val35, i64 noundef 16416) #13
  %14 = getelementptr inbounds nuw i8, ptr %6, i64 40
  store ptr %13, ptr %14, align 8, !tbaa !48
  %15 = tail call ptr %.val(ptr noundef %.val35, i64 noundef 262200) #13
  %.pre = load ptr, ptr %12, align 8, !tbaa !44
  br label %LZ4F_malloc.exit50

16:                                               ; preds = %LZ4F_malloc.exit
  call void @llvm.memcpy.p0.p0.i64(ptr noundef nonnull align 8 dereferenceable(32) %5, ptr noundef nonnull align 8 dereferenceable(32) %0, i64 32, i1 false), !tbaa.struct !42
  %17 = icmp ugt i64 %2, 65536
  %18 = getelementptr i8, ptr %1, i64 %2
  %19 = getelementptr i8, ptr %18, i64 -65536
  %.028 = tail call i64 @llvm.umin.i64(i64 %2, i64 65536)
  %.027 = select i1 %17, ptr %19, ptr %1
  %20 = tail call noalias ptr @malloc(i64 noundef %.028) #14
  %21 = getelementptr inbounds nuw i8, ptr %5, i64 32
  store ptr %20, ptr %21, align 8, !tbaa !44
  %22 = tail call noalias dereferenceable_or_null(16416) ptr @malloc(i64 noundef 16416) #14
  %23 = getelementptr inbounds nuw i8, ptr %5, i64 40
  store ptr %22, ptr %23, align 8, !tbaa !48
  %24 = tail call noalias dereferenceable_or_null(262200) ptr @malloc(i64 noundef 262200) #14
  br label %LZ4F_malloc.exit50

LZ4F_malloc.exit50:                               ; preds = %7, %16
  %25 = phi ptr [ %.pre, %7 ], [ %20, %16 ]
  %26 = phi ptr [ %14, %7 ], [ %23, %16 ]
  %.027616781 = phi ptr [ %.02756, %7 ], [ %.027, %16 ]
  %.028596979 = phi i64 [ %.02855, %7 ], [ %.028, %16 ]
  %.0.i53577177 = phi ptr [ %6, %7 ], [ %5, %16 ]
  %27 = phi ptr [ %12, %7 ], [ %21, %16 ]
  %.0.i49 = phi ptr [ %15, %7 ], [ %24, %16 ]
  %28 = getelementptr inbounds nuw i8, ptr %.0.i53577177, i64 48
  store ptr %.0.i49, ptr %28, align 8, !tbaa !49
  %.not32 = icmp eq ptr %25, null
  br i1 %.not32, label %31, label %29

29:                                               ; preds = %LZ4F_malloc.exit50
  %30 = load ptr, ptr %26, align 8, !tbaa !48
  %.not33 = icmp eq ptr %30, null
  %.not34 = icmp eq ptr %.0.i49, null
  %or.cond = select i1 %.not33, i1 true, i1 %.not34
  br i1 %or.cond, label %31, label %32

31:                                               ; preds = %29, %LZ4F_malloc.exit50
  tail call void @LZ4F_freeCDict(ptr noundef nonnull %.0.i53577177)
  br label %45

32:                                               ; preds = %29
  tail call void @llvm.memcpy.p0.p0.i64(ptr nonnull align 1 %25, ptr align 1 %.027616781, i64 %.028596979, i1 false)
  %33 = load ptr, ptr %26, align 8, !tbaa !48
  %34 = tail call ptr @LZ4_initStream(ptr noundef %33, i64 noundef 16416) #13
  %35 = load ptr, ptr %26, align 8, !tbaa !48
  %36 = load ptr, ptr %27, align 8, !tbaa !44
  %37 = trunc nuw nsw i64 %.028596979 to i32
  %38 = tail call i32 @LZ4_loadDictSlow(ptr noundef %35, ptr noundef %36, i32 noundef %37) #13
  %39 = load ptr, ptr %28, align 8, !tbaa !49
  %40 = tail call ptr @LZ4_initStreamHC(ptr noundef %39, i64 noundef 262200) #13
  %41 = load ptr, ptr %28, align 8, !tbaa !49
  tail call void @LZ4_setCompressionLevel(ptr noundef %41, i32 noundef 9) #13
  %42 = load ptr, ptr %28, align 8, !tbaa !49
  %43 = load ptr, ptr %27, align 8, !tbaa !44
  %44 = tail call i32 @LZ4_loadDictHC(ptr noundef %42, ptr noundef %43, i32 noundef %37) #13
  br label %45

45:                                               ; preds = %LZ4F_malloc.exit.thread, %LZ4F_malloc.exit, %32, %31
  %.0 = phi ptr [ %.0.i53577177, %32 ], [ null, %31 ], [ null, %LZ4F_malloc.exit ], [ null, %LZ4F_malloc.exit.thread ]
  ret ptr %.0
}